; Function Attrs: nounwind uwtable
define i32 @agdegree(ptr noundef %0, ptr noundef %1, i32 noundef %2, i32 noundef %3) local_unnamed_addr #0 {
  %5 = tail call ptr @agsubrep(ptr noundef %0, ptr noundef %1) #11
  %.not = icmp eq ptr %5, null
  br i1 %.not, label %25, label %6

6:                                                ; preds = %4
  %.not12 = icmp eq i32 %3, 0
  br i1 %.not12, label %15, label %7

7:                                                ; preds = %6
  %8 = getelementptr inbounds nuw i8, ptr %0, i64 80
  %9 = load ptr, ptr %8, align 8, !tbaa !41
  %10 = getelementptr inbounds nuw i8, ptr %5, i64 64
  %11 = load ptr, ptr %10, align 8, !tbaa !58
  %12 = tail call i32 @dtrestore(ptr noundef %9, ptr noundef %11) #11
  %13 = tail call i32 @dtsize(ptr noundef %9) #11
  %14 = tail call ptr @dtextract(ptr noundef %9) #11
  store ptr %14, ptr %10, align 8, !tbaa !58
  br label %15

15:                                               ; preds = %7, %6
  %.1 = phi i32 [ %13, %7 ], [ 0, %6 ]
  %.not13 = icmp eq i32 %2, 0
  br i1 %.not13, label %25, label %16

16:                                               ; preds = %15
  %17 = getelementptr inbounds nuw i8, ptr %0, i64 80
  %18 = load ptr, ptr %17, align 8, !tbaa !41
  %19 = getelementptr inbounds nuw i8, ptr %5, i64 56
  %20 = load ptr, ptr %19, align 8, !tbaa !58
  %21 = tail call i32 @dtrestore(ptr noundef %18, ptr noundef %20) #11
  %22 = tail call i32 @dtsize(ptr noundef %18) #11
  %23 = tail call ptr @dtextract(ptr noundef %18) #11
  store ptr %23, ptr %19, align 8, !tbaa !58
  %24 = add nsw i32 %22, %.1
  br label %25

25:                                               ; preds = %15, %16, %4
  %.0 = phi i32 [ %24, %16 ], [ %.1, %15 ], [ 0, %4 ]
  ret i32 %.0
}